; ModuleID = '21/609.cpp'
source_filename = "21/609.cpp"
target datalayout = "e-m:e-p270:32:32-p271:32:32-p272:64:64-i64:64-f80:128-n8:16:32:64-S128"
target triple = "x86_64-pc-linux-gnu"

%"class.std::ios_base::Init" = type { i8 }
%"class.std::basic_istream" = type { i32 (...)**, i64, %"class.std::basic_ios" }
%"class.std::basic_ios" = type { %"class.std::ios_base", %"class.std::basic_ostream"*, i8, i8, %"class.std::basic_streambuf"*, %"class.std::ctype"*, %"class.std::num_put"*, %"class.std::num_get"* }
%"class.std::ios_base" = type { i32 (...)**, i64, i64, i32, i32, i32, %"struct.std::ios_base::_Callback_list"*, %"struct.std::ios_base::_Words", [8 x %"struct.std::ios_base::_Words"], i32, %"struct.std::ios_base::_Words"*, %"class.std::locale" }
%"struct.std::ios_base::_Callback_list" = type { %"struct.std::ios_base::_Callback_list"*, void (i32, %"class.std::ios_base"*, i32)*, i32, i32 }
%"struct.std::ios_base::_Words" = type { i8*, i64 }
%"class.std::locale" = type { %"class.std::locale::_Impl"* }
%"class.std::locale::_Impl" = type { i32, %"class.std::locale::facet"**, i64, %"class.std::locale::facet"**, i8** }
%"class.std::locale::facet" = type <{ i32 (...)**, i32, [4 x i8] }>
%"class.std::basic_ostream" = type { i32 (...)**, %"class.std::basic_ios" }
%"class.std::basic_streambuf" = type { i32 (...)**, i8*, i8*, i8*, i8*, i8*, i8*, %"class.std::locale" }
%"class.std::ctype" = type <{ %"class.std::locale::facet.base", [4 x i8], %struct.__locale_struct*, i8, [7 x i8], i32*, i32*, i16*, i8, [256 x i8], [256 x i8], i8, [6 x i8] }>
%"class.std::locale::facet.base" = type <{ i32 (...)**, i32 }>
%struct.__locale_struct = type { [13 x %struct.__locale_data*], i16*, i32*, i32*, [13 x i8*] }
%struct.__locale_data = type opaque
%"class.std::num_put" = type { %"class.std::locale::facet.base", [4 x i8] }
%"class.std::num_get" = type { %"class.std::locale::facet.base", [4 x i8] }

$_ZSt3absf = comdat any

@_ZStL8__ioinit = internal global %"class.std::ios_base::Init" zeroinitializer, align 1
@__dso_handle = external hidden global i8
@_ZSt3cin = external dso_local global %"class.std::basic_istream", align 8
@_ZSt4cout = external dso_local global %"class.std::basic_ostream", align 8
@llvm.global_ctors = appending global [1 x { i32, void ()*, i8* }] [{ i32, void ()*, i8* } { i32 65535, void ()* @_GLOBAL__sub_I_609.cpp, i8* null }]

; Function Attrs: noinline uwtable
define internal void @__cxx_global_var_init() #0 section ".text.startup" {
  call void @_ZNSt8ios_base4InitC1Ev(%"class.std::ios_base::Init"* @_ZStL8__ioinit)
  %1 = call i32 @__cxa_atexit(void (i8*)* bitcast (void (%"class.std::ios_base::Init"*)* @_ZNSt8ios_base4InitD1Ev to void (i8*)*), i8* getelementptr inbounds (%"class.std::ios_base::Init", %"class.std::ios_base::Init"* @_ZStL8__ioinit, i32 0, i32 0), i8* @__dso_handle) #3
  ret void
}

declare dso_local void @_ZNSt8ios_base4InitC1Ev(%"class.std::ios_base::Init"*) unnamed_addr #1

; Function Attrs: nounwind
declare dso_local void @_ZNSt8ios_base4InitD1Ev(%"class.std::ios_base::Init"*) unnamed_addr #2

; Function Attrs: nounwind
declare dso_local i32 @__cxa_atexit(void (i8*)*, i8*, i8*) #3

; Function Attrs: noinline norecurse uwtable
define dso_local i32 @main() #4 {
  %1 = alloca i32, align 4
  %2 = alloca i32, align 4
  %3 = alloca i32, align 4
  %4 = alloca i8*, align 8
  %5 = alloca i64, align 8
  %6 = alloca float, align 4
  %7 = alloca float, align 4
  %8 = alloca float, align 4
  %9 = alloca i32, align 4
  %10 = alloca i32, align 4
  %11 = alloca i32, align 4
  store i32 0, i32* %1, align 4
  store i32 0, i32* %3, align 4
  %12 = call dereferenceable(280) %"class.std::basic_istream"* @_ZNSirsERi(%"class.std::basic_istream"* @_ZSt3cin, i32* dereferenceable(4) %2)
  %13 = load i32, i32* %2, align 4
  %14 = zext i32 %13 to i64
  %15 = call i8* @llvm.stacksave()
  store i8* %15, i8** %4, align 8
  %16 = alloca float, i64 %14, align 16
  store i64 %14, i64* %5, align 8
  store float 0.000000e+00, float* %7, align 4
  store float 0.000000e+00, float* %8, align 4
  store i32 0, i32* %9, align 4
  br label %17

17:                                               ; preds = %32, %0
  %18 = load i32, i32* %9, align 4
  %19 = load i32, i32* %2, align 4
  %20 = icmp slt i32 %18, %19
  br i1 %20, label %21, label %35

21:                                               ; preds = %17
  %22 = load i32, i32* %9, align 4
  %23 = sext i32 %22 to i64
  %24 = getelementptr inbounds float, float* %16, i64 %23
  %25 = call dereferenceable(280) %"class.std::basic_istream"* @_ZNSirsERf(%"class.std::basic_istream"* @_ZSt3cin, float* dereferenceable(4) %24)
  %26 = load i32, i32* %9, align 4
  %27 = sext i32 %26 to i64
  %28 = getelementptr inbounds float, float* %16, i64 %27
  %29 = load float, float* %28, align 4
  %30 = load float, float* %7, align 4
  %31 = fadd float %30, %29
  store float %31, float* %7, align 4
  br label %32

32:                                               ; preds = %21
  %33 = load i32, i32* %9, align 4
  %34 = add nsw i32 %33, 1
  store i32 %34, i32* %9, align 4
  br label %17

35:                                               ; preds = %17
  %36 = load float, float* %7, align 4
  %37 = load i32, i32* %2, align 4
  %38 = sitofp i32 %37 to float
  %39 = fdiv float %36, %38
  store float %39, float* %6, align 4
  store i32 0, i32* %10, align 4
  br label %40

40:                                               ; preds = %63, %35
  %41 = load i32, i32* %10, align 4
  %42 = load i32, i32* %2, align 4
  %43 = icmp slt i32 %41, %42
  br i1 %43, label %44, label %66

44:                                               ; preds = %40
  %45 = load i32, i32* %10, align 4
  %46 = sext i32 %45 to i64
  %47 = getelementptr inbounds float, float* %16, i64 %46
  %48 = load float, float* %47, align 4
  %49 = load float, float* %6, align 4
  %50 = fsub float %48, %49
  %51 = call float @_ZSt3absf(float %50)
  %52 = load float, float* %8, align 4
  %53 = fcmp oge float %51, %52
  br i1 %53, label %54, label %62

54:                                               ; preds = %44
  %55 = load i32, i32* %10, align 4
  %56 = sext i32 %55 to i64
  %57 = getelementptr inbounds float, float* %16, i64 %56
  %58 = load float, float* %57, align 4
  %59 = load float, float* %6, align 4
  %60 = fsub float %58, %59
  %61 = call float @_ZSt3absf(float %60)
  store float %61, float* %8, align 4
  br label %62

62:                                               ; preds = %54, %44
  br label %63

63:                                               ; preds = %62
  %64 = load i32, i32* %10, align 4
  %65 = add nsw i32 %64, 1
  store i32 %65, i32* %10, align 4
  br label %40

66:                                               ; preds = %40
  store i32 0, i32* %11, align 4
  br label %67

67:                                               ; preds = %116, %66
  %68 = load i32, i32* %11, align 4
  %69 = load i32, i32* %2, align 4
  %70 = icmp slt i32 %68, %69
  br i1 %70, label %71, label %119

71:                                               ; preds = %67
  %72 = load i32, i32* %11, align 4
  %73 = sext i32 %72 to i64
  %74 = getelementptr inbounds float, float* %16, i64 %73
  %75 = load float, float* %74, align 4
  %76 = load float, float* %6, align 4
  %77 = fsub float %75, %76
  %78 = call float @_ZSt3absf(float %77)
  %79 = load float, float* %8, align 4
  %80 = fcmp oeq float %78, %79
  br i1 %80, label %81, label %92

81:                                               ; preds = %71
  %82 = load i32, i32* %3, align 4
  %83 = icmp eq i32 %82, 0
  br i1 %83, label %84, label %92

84:                                               ; preds = %81
  %85 = load i32, i32* %11, align 4
  %86 = sext i32 %85 to i64
  %87 = getelementptr inbounds float, float* %16, i64 %86
  %88 = load float, float* %87, align 4
  %89 = call dereferenceable(272) %"class.std::basic_ostream"* @_ZNSolsEf(%"class.std::basic_ostream"* @_ZSt4cout, float %88)
  %90 = load i32, i32* %3, align 4
  %91 = add nsw i32 %90, 1
  store i32 %91, i32* %3, align 4
  br label %115

92:                                               ; preds = %81, %71
  %93 = load i32, i32* %11, align 4
  %94 = sext i32 %93 to i64
  %95 = getelementptr inbounds float, float* %16, i64 %94
  %96 = load float, float* %95, align 4
  %97 = load float, float* %6, align 4
  %98 = fsub float %96, %97
  %99 = call float @_ZSt3absf(float %98)
  %100 = load float, float* %8, align 4
  %101 = fcmp oeq float %99, %100
  br i1 %101, label %102, label %114

102:                                              ; preds = %92
  %103 = load i32, i32* %3, align 4
  %104 = icmp ne i32 %103, 0
  br i1 %104, label %105, label %114

105:                                              ; preds = %102
  %106 = call dereferenceable(272) %"class.std::basic_ostream"* @_ZStlsISt11char_traitsIcEERSt13basic_ostreamIcT_ES5_c(%"class.std::basic_ostream"* dereferenceable(272) @_ZSt4cout, i8 signext 44)
  %107 = load i32, i32* %11, align 4
  %108 = sext i32 %107 to i64
  %109 = getelementptr inbounds float, float* %16, i64 %108
  %110 = load float, float* %109, align 4
  %111 = call dereferenceable(272) %"class.std::basic_ostream"* @_ZNSolsEf(%"class.std::basic_ostream"* %106, float %110)
  %112 = load i32, i32* %3, align 4
  %113 = add nsw i32 %112, 1
  store i32 %113, i32* %3, align 4
  br label %114

114:                                              ; preds = %105, %102, %92
  br label %115

115:                                              ; preds = %114, %84
  br label %116

116:                                              ; preds = %115
  %117 = load i32, i32* %11, align 4
  %118 = add nsw i32 %117, 1
  store i32 %118, i32* %11, align 4
  br label %67

119:                                              ; preds = %67
  store i32 0, i32* %1, align 4
  %120 = load i8*, i8** %4, align 8
  call void @llvm.stackrestore(i8* %120)
  %121 = load i32, i32* %1, align 4
  ret i32 %121
}

declare dso_local dereferenceable(280) %"class.std::basic_istream"* @_ZNSirsERi(%"class.std::basic_istream"*, i32* dereferenceable(4)) #1

; Function Attrs: nounwind
declare i8* @llvm.stacksave() #3

declare dso_local dereferenceable(280) %"class.std::basic_istream"* @_ZNSirsERf(%"class.std::basic_istream"*, float* dereferenceable(4)) #1

; Function Attrs: noinline nounwind uwtable
define linkonce_odr dso_local float @_ZSt3absf(float %0) #5 comdat {
  %2 = alloca float, align 4
  store float %0, float* %2, align 4
  %3 = load float, float* %2, align 4
  %4 = call float @llvm.fabs.f32(float %3)
  ret float %4
}

declare dso_local dereferenceable(272) %"class.std::basic_ostream"* @_ZNSolsEf(%"class.std::basic_ostream"*, float) #1

declare dso_local dereferenceable(272) %"class.std::basic_ostream"* @_ZStlsISt11char_traitsIcEERSt13basic_ostreamIcT_ES5_c(%"class.std::basic_ostream"* dereferenceable(272), i8 signext) #1

; Function Attrs: nounwind
declare void @llvm.stackrestore(i8*) #3

; Function Attrs: nounwind readnone speculatable willreturn
declare float @llvm.fabs.f32(float) #6

; Function Attrs: noinline uwtable
define internal void @_GLOBAL__sub_I_609.cpp() #0 section ".text.startup" {
  call void @__cxx_global_var_init()
  ret void
}


!llvm.module.flags = !{!0}
!llvm.ident = !{!1}

!0 = !{i32 1, !"wchar_size", i32 4}
!1 = !{!"clang version 10.0.0-4ubuntu1 "}
