; ModuleID = 'source-C-CXX/20/609.cpp'
source_filename = "source-C-CXX/20/609.cpp"
target datalayout = "e-m:e-p270:32:32-p271:32:32-p272:64:64-i64:64-f80:128-n8:16:32:64-S128"
target triple = "x86_64-pc-linux-gnu"

%"class.std::ios_base::Init" = type { i8 }
%"class.std::basic_istream" = type { i32 (...)**, i64, %"class.std::basic_ios" }
%"class.std::basic_ios" = type { %"class.std::ios_base", %"class.std::basic_ostream"*, i8, i8, %"class.std::basic_streambuf"*, %"class.std::ctype"*, %"class.std::num_put"*, %"class.std::num_get"* }
%"class.std::ios_base" = type { i32 (...)**, i64, i64, i32, i32, i32, %"struct.std::ios_base::_Callback_list"*, %"struct.std::ios_base::_Words", [8 x %"struct.std::ios_base::_Words"], i32, %"struct.std::ios_base::_Words"*, %"class.std::locale" }
%"struct.std::ios_base::_Callback_list" = type { %"struct.std::ios_base::_Callback_list"*, void (i32, %"class.std::ios_base"*, i32)*, i32, i32 }
%"struct.std::ios_base::_Words" = type { i8*, i64 }
%"class.std::locale" = type { %"class.std::locale::_Impl"* }
%"class.std::locale::_Impl" = type { i32, %"class.std::locale::facet"**, i64, %"class.std::locale::facet"**, i8** }
%"class.std::locale::facet" = type <{ i32 (...)**, i32, [4 x i8] }>
%"class.std::basic_ostream" = type { i32 (...)**, %"class.std::basic_ios" }
%"class.std::basic_streambuf" = type { i32 (...)**, i8*, i8*, i8*, i8*, i8*, i8*, %"class.std::locale" }
%"class.std::ctype" = type <{ %"class.std::locale::facet.base", [4 x i8], %struct.__locale_struct*, i8, [7 x i8], i32*, i32*, i16*, i8, [256 x i8], [256 x i8], i8, [6 x i8] }>
%"class.std::locale::facet.base" = type <{ i32 (...)**, i32 }>
%struct.__locale_struct = type { [13 x %struct.__locale_data*], i16*, i32*, i32*, [13 x i8*] }
%struct.__locale_data = type opaque
%"class.std::num_put" = type { %"class.std::locale::facet.base", [4 x i8] }
%"class.std::num_get" = type { %"class.std::locale::facet.base", [4 x i8] }

@_ZStL8__ioinit = internal global %"class.std::ios_base::Init" zeroinitializer, align 1
@__dso_handle = external hidden global i8
@_ZSt3cin = external global %"class.std::basic_istream", align 8
@_ZSt4cout = external global %"class.std::basic_ostream", align 8
@llvm.global_ctors = appending global [1 x { i32, void ()*, i8* }] [{ i32, void ()*, i8* } { i32 65535, void ()* @_GLOBAL__sub_I_609.cpp, i8* null }]

declare void @_ZNSt8ios_base4InitC1Ev(%"class.std::ios_base::Init"* nonnull align 1 dereferenceable(1)) unnamed_addr #0

; Function Attrs: nounwind
declare void @_ZNSt8ios_base4InitD1Ev(%"class.std::ios_base::Init"* nonnull align 1 dereferenceable(1)) unnamed_addr #1

; Function Attrs: nofree nounwind
declare i32 @__cxa_atexit(void (i8*)*, i8*, i8*) local_unnamed_addr #2

; Function Attrs: mustprogress norecurse sspstrong uwtable
define dso_local i32 @main() local_unnamed_addr #3 {
  %1 = alloca i8, align 1
  %2 = alloca i32, align 4
  %3 = bitcast i32* %2 to i8*
  call void @llvm.lifetime.start.p0i8(i64 4, i8* nonnull %3) #8
  %4 = call nonnull align 8 dereferenceable(16) %"class.std::basic_istream"* @_ZNSirsERi(%"class.std::basic_istream"* nonnull align 8 dereferenceable(16) @_ZSt3cin, i32* nonnull align 4 dereferenceable(4) %2)
  %5 = load i32, i32* %2, align 4, !tbaa !5
  %6 = zext i32 %5 to i64
  %7 = call i8* @llvm.stacksave()
  %8 = alloca float, i64 %6, align 16
  %9 = load i32, i32* %2, align 4, !tbaa !5
  %10 = icmp sgt i32 %9, 0
  br i1 %10, label %21, label %66

11:                                               ; preds = %21
  %12 = sitofp i32 %29 to float
  %13 = fdiv float %27, %12
  %14 = icmp sgt i32 %29, 0
  br i1 %14, label %15, label %66

15:                                               ; preds = %11
  %16 = zext i32 %29 to i64
  %17 = and i64 %16, 1
  %18 = icmp eq i32 %29, 1
  br i1 %18, label %32, label %19

19:                                               ; preds = %15
  %20 = and i64 %16, 4294967294
  br label %46

21:                                               ; preds = %0, %21
  %22 = phi i64 [ %28, %21 ], [ 0, %0 ]
  %23 = phi float [ %27, %21 ], [ 0.000000e+00, %0 ]
  %24 = getelementptr inbounds float, float* %8, i64 %22
  %25 = call nonnull align 8 dereferenceable(16) %"class.std::basic_istream"* @_ZNSi10_M_extractIfEERSiRT_(%"class.std::basic_istream"* nonnull align 8 dereferenceable(16) @_ZSt3cin, float* nonnull align 4 dereferenceable(4) %24)
  %26 = load float, float* %24, align 4, !tbaa !9
  %27 = fadd float %23, %26
  %28 = add nuw nsw i64 %22, 1
  %29 = load i32, i32* %2, align 4, !tbaa !5
  %30 = sext i32 %29 to i64
  %31 = icmp slt i64 %28, %30
  br i1 %31, label %21, label %11, !llvm.loop !11

32:                                               ; preds = %46, %15
  %33 = phi float [ undef, %15 ], [ %62, %46 ]
  %34 = phi i64 [ 0, %15 ], [ %63, %46 ]
  %35 = phi float [ 0.000000e+00, %15 ], [ %62, %46 ]
  %36 = icmp eq i64 %17, 0
  br i1 %36, label %44, label %37

37:                                               ; preds = %32
  %38 = getelementptr inbounds float, float* %8, i64 %34
  %39 = load float, float* %38, align 4, !tbaa !9
  %40 = fsub float %39, %13
  %41 = call float @llvm.fabs.f32(float %40) #8
  %42 = fcmp oge float %41, %35
  %43 = select i1 %42, float %41, float %35
  br label %44

44:                                               ; preds = %32, %37
  %45 = phi float [ %33, %32 ], [ %43, %37 ]
  br i1 %14, label %67, label %66

46:                                               ; preds = %46, %19
  %47 = phi i64 [ 0, %19 ], [ %63, %46 ]
  %48 = phi float [ 0.000000e+00, %19 ], [ %62, %46 ]
  %49 = phi i64 [ %20, %19 ], [ %64, %46 ]
  %50 = getelementptr inbounds float, float* %8, i64 %47
  %51 = load float, float* %50, align 8, !tbaa !9
  %52 = fsub float %51, %13
  %53 = call float @llvm.fabs.f32(float %52) #8
  %54 = fcmp oge float %53, %48
  %55 = select i1 %54, float %53, float %48
  %56 = or i64 %47, 1
  %57 = getelementptr inbounds float, float* %8, i64 %56
  %58 = load float, float* %57, align 4, !tbaa !9
  %59 = fsub float %58, %13
  %60 = call float @llvm.fabs.f32(float %59) #8
  %61 = fcmp oge float %60, %55
  %62 = select i1 %61, float %60, float %55
  %63 = add nuw nsw i64 %47, 2
  %64 = add i64 %49, -2
  %65 = icmp eq i64 %64, 0
  br i1 %65, label %32, label %46, !llvm.loop !13

66:                                               ; preds = %89, %0, %11, %44
  call void @llvm.stackrestore(i8* %7)
  call void @llvm.lifetime.end.p0i8(i64 4, i8* nonnull %3) #8
  ret i32 0

67:                                               ; preds = %44, %89
  %68 = phi i64 [ %91, %89 ], [ 0, %44 ]
  %69 = phi i32 [ %90, %89 ], [ 0, %44 ]
  %70 = getelementptr inbounds float, float* %8, i64 %68
  %71 = load float, float* %70, align 4, !tbaa !9
  %72 = fsub float %71, %13
  %73 = call float @llvm.fabs.f32(float %72) #8
  %74 = fcmp oeq float %73, %45
  %75 = icmp eq i32 %69, 0
  %76 = select i1 %74, i1 %75, i1 false
  br i1 %76, label %77, label %80

77:                                               ; preds = %67
  %78 = fpext float %71 to double
  %79 = call nonnull align 8 dereferenceable(8) %"class.std::basic_ostream"* @_ZNSo9_M_insertIdEERSoT_(%"class.std::basic_ostream"* nonnull align 8 dereferenceable(8) @_ZSt4cout, double %78)
  br label %89

80:                                               ; preds = %67
  %81 = icmp ne i32 %69, 0
  %82 = select i1 %74, i1 %81, i1 false
  br i1 %82, label %83, label %89

83:                                               ; preds = %80
  call void @llvm.lifetime.start.p0i8(i64 1, i8* nonnull %1)
  store i8 44, i8* %1, align 1, !tbaa !14
  %84 = call nonnull align 8 dereferenceable(8) %"class.std::basic_ostream"* @_ZSt16__ostream_insertIcSt11char_traitsIcEERSt13basic_ostreamIT_T0_ES6_PKS3_l(%"class.std::basic_ostream"* nonnull align 8 dereferenceable(8) @_ZSt4cout, i8* nonnull %1, i64 1)
  call void @llvm.lifetime.end.p0i8(i64 1, i8* nonnull %1)
  %85 = load float, float* %70, align 4, !tbaa !9
  %86 = fpext float %85 to double
  %87 = call nonnull align 8 dereferenceable(8) %"class.std::basic_ostream"* @_ZNSo9_M_insertIdEERSoT_(%"class.std::basic_ostream"* nonnull align 8 dereferenceable(8) %84, double %86)
  %88 = add nsw i32 %69, 1
  br label %89

89:                                               ; preds = %77, %83, %80
  %90 = phi i32 [ 1, %77 ], [ %88, %83 ], [ %69, %80 ]
  %91 = add nuw nsw i64 %68, 1
  %92 = load i32, i32* %2, align 4, !tbaa !5
  %93 = sext i32 %92 to i64
  %94 = icmp slt i64 %91, %93
  br i1 %94, label %67, label %66, !llvm.loop !15
}

; Function Attrs: argmemonly mustprogress nofree nosync nounwind willreturn
declare void @llvm.lifetime.start.p0i8(i64 immarg, i8* nocapture) #4

declare nonnull align 8 dereferenceable(16) %"class.std::basic_istream"* @_ZNSirsERi(%"class.std::basic_istream"* nonnull align 8 dereferenceable(16), i32* nonnull align 4 dereferenceable(4)) local_unnamed_addr #0

; Function Attrs: mustprogress nofree nosync nounwind willreturn
declare i8* @llvm.stacksave() #5

; Function Attrs: argmemonly mustprogress nofree nosync nounwind willreturn
declare void @llvm.lifetime.end.p0i8(i64 immarg, i8* nocapture) #4

; Function Attrs: mustprogress nofree nosync nounwind willreturn
declare void @llvm.stackrestore(i8*) #5

; Function Attrs: mustprogress nofree nosync nounwind readnone speculatable willreturn
declare float @llvm.fabs.f32(float) #6

declare nonnull align 8 dereferenceable(16) %"class.std::basic_istream"* @_ZNSi10_M_extractIfEERSiRT_(%"class.std::basic_istream"* nonnull align 8 dereferenceable(16), float* nonnull align 4 dereferenceable(4)) local_unnamed_addr #0

declare nonnull align 8 dereferenceable(8) %"class.std::basic_ostream"* @_ZNSo9_M_insertIdEERSoT_(%"class.std::basic_ostream"* nonnull align 8 dereferenceable(8), double) local_unnamed_addr #0

declare nonnull align 8 dereferenceable(8) %"class.std::basic_ostream"* @_ZSt16__ostream_insertIcSt11char_traitsIcEERSt13basic_ostreamIT_T0_ES6_PKS3_l(%"class.std::basic_ostream"* nonnull align 8 dereferenceable(8), i8*, i64) local_unnamed_addr #0

; Function Attrs: sspstrong uwtable
define internal void @_GLOBAL__sub_I_609.cpp() #7 section ".text.startup" {
  tail call void @_ZNSt8ios_base4InitC1Ev(%"class.std::ios_base::Init"* nonnull align 1 dereferenceable(1) @_ZStL8__ioinit)
  %1 = tail call i32 @__cxa_atexit(void (i8*)* bitcast (void (%"class.std::ios_base::Init"*)* @_ZNSt8ios_base4InitD1Ev to void (i8*)*), i8* getelementptr inbounds (%"class.std::ios_base::Init", %"class.std::ios_base::Init"* @_ZStL8__ioinit, i64 0, i32 0), i8* nonnull @__dso_handle) #8
  ret void
}


!llvm.module.flags = !{!0, !1, !2, !3}
!llvm.ident = !{!4}

!0 = !{i32 1, !"wchar_size", i32 4}
!1 = !{i32 7, !"PIC Level", i32 2}
!2 = !{i32 7, !"PIE Level", i32 2}
!3 = !{i32 7, !"uwtable", i32 1}
!4 = !{!"clang version 13.0.0"}
!5 = !{!6, !6, i64 0}
!6 = !{!"int", !7, i64 0}
!7 = !{!"omnipotent char", !8, i64 0}
!8 = !{!"Simple C++ TBAA"}
!9 = !{!10, !10, i64 0}
!10 = !{!"float", !7, i64 0}
!11 = distinct !{!11, !12}
!12 = !{!"llvm.loop.mustprogress"}
!13 = distinct !{!13, !12}
!14 = !{!7, !7, i64 0}
!15 = distinct !{!15, !12}
